; Function Attrs: nounwind uwtable
define internal i32 @test_single_key_enc_pass(i32 noundef %0) #1 {
  %2 = alloca %struct.pkcs12_enc, align 8
  call void @llvm.lifetime.start.p0(i64 24, ptr nonnull %2) #4
  store i32 146, ptr %2, align 8, !tbaa !15
  %3 = sext i32 %0 to i64
  %4 = getelementptr inbounds [2 x ptr], ptr @passwords, i64 0, i64 %3
  %5 = load ptr, ptr %4, align 8, !tbaa !20
  %6 = getelementptr inbounds nuw i8, ptr %2, i64 8
  store ptr %5, ptr %6, align 8, !tbaa !18
  %7 = getelementptr inbounds nuw i8, ptr %2, i64 16
  store i32 1000, ptr %7, align 8, !tbaa !19
  %8 = call fastcc i32 @test_single_key(ptr noundef %2)
  call void @llvm.lifetime.end.p0(i64 24, ptr nonnull %2) #4
  ret i32 %8
}